target datalayout = "e-m:e-p270:32:32-p271:32:32-p272:64:64-i64:64-i128:128-f80:128-n8:16:32:64-S128"
target triple = "x86_64-pc-linux-gnu"

%struct.conf_includes_map_t = type { ptr, ptr }

@conf_includes_list = dso_local global ptr null, align 8
@.str = private unnamed_addr constant [15 x i8] c"parse_config.c\00", align 1
@__func__._handle_include = private unnamed_addr constant [16 x i8] c"_handle_include\00", align 1

; Function Attrs: nounwind uwtable
define internal void @_handle_include(ptr noundef %0, ptr noundef %1) #0 {
  %3 = alloca ptr, align 8
  %4 = alloca ptr, align 8
  %5 = alloca ptr, align 8
  store ptr %0, ptr %3, align 8
  store ptr %1, ptr %4, align 8
  call void @llvm.lifetime.start.p0(i64 8, ptr %5) #9
  store ptr null, ptr %5, align 8
  %6 = load ptr, ptr @conf_includes_list, align 8
  %7 = icmp ne ptr %6, null
  br i1 %7, label %10, label %8

8:                                                ; preds = %2
  %9 = call ptr @list_create(ptr noundef @_delete_conf_includes)
  store ptr %9, ptr @conf_includes_list, align 8
  br label %10

10:                                               ; preds = %8, %2
  %11 = load ptr, ptr @conf_includes_list, align 8
  %12 = load ptr, ptr %4, align 8
  %13 = call ptr @list_find_first_ro(ptr noundef %11, ptr noundef @find_map_conf_file, ptr noundef %12)
  store ptr %13, ptr %5, align 8
  %14 = icmp ne ptr %13, null
  br i1 %14, label %31, label %15

15:                                               ; preds = %10
  %16 = call ptr @slurm_xcalloc(i64 noundef 1, i64 noundef 16, i1 noundef zeroext true, i1 noundef zeroext false, ptr noundef @.str, i32 noundef 1138, ptr noundef @__func__._handle_include)
  store ptr %16, ptr %5, align 8
  %17 = load ptr, ptr %4, align 8
  %18 = call ptr @xstrdup(ptr noundef %17)
  %19 = load ptr, ptr %5, align 8
  %20 = getelementptr inbounds nuw %struct.conf_includes_map_t, ptr %19, i32 0, i32 0
  store ptr %18, ptr %20, align 8
  %21 = call ptr @list_create(ptr noundef @xfree_ptr)
  %22 = load ptr, ptr %5, align 8
  %23 = getelementptr inbounds nuw %struct.conf_includes_map_t, ptr %22, i32 0, i32 1
  store ptr %21, ptr %23, align 8
  %24 = load ptr, ptr %5, align 8
  %25 = getelementptr inbounds nuw %struct.conf_includes_map_t, ptr %24, i32 0, i32 1
  %26 = load ptr, ptr %25, align 8
  %27 = load ptr, ptr %3, align 8
  %28 = call ptr @xstrdup(ptr noundef %27)
  call void @list_append(ptr noundef %26, ptr noundef %28)
  %29 = load ptr, ptr @conf_includes_list, align 8
  %30 = load ptr, ptr %5, align 8
  call void @list_append(ptr noundef %29, ptr noundef %30)
  br label %45

31:                                               ; preds = %10
  %32 = load ptr, ptr %5, align 8
  %33 = getelementptr inbounds nuw %struct.conf_includes_map_t, ptr %32, i32 0, i32 1
  %34 = load ptr, ptr %33, align 8
  %35 = load ptr, ptr %3, align 8
  %36 = call ptr @list_find_first_ro(ptr noundef %34, ptr noundef @slurm_find_char_exact_in_list, ptr noundef %35)
  %37 = icmp ne ptr %36, null
  br i1 %37, label %44, label %38

38:                                               ; preds = %31
  %39 = load ptr, ptr %5, align 8
  %40 = getelementptr inbounds nuw %struct.conf_includes_map_t, ptr %39, i32 0, i32 1
  %41 = load ptr, ptr %40, align 8
  %42 = load ptr, ptr %3, align 8
  %43 = call ptr @xstrdup(ptr noundef %42)
  call void @list_append(ptr noundef %41, ptr noundef %43)
  br label %44

44:                                               ; preds = %38, %31
  br label %45

45:                                               ; preds = %44, %15
  call void @llvm.lifetime.end.p0(i64 8, ptr %5) #9
  ret void
}