; Function Attrs: nounwind uwtable
define internal fastcc void @_handle_include(ptr noundef %0, ptr noundef %1) unnamed_addr #0 {
  %3 = load ptr, ptr @conf_includes_list, align 8
  %.not = icmp eq ptr %3, null
  br i1 %.not, label %4, label %6

4:                                                ; preds = %2
  %5 = tail call ptr @list_create(ptr noundef nonnull @_delete_conf_includes) #13
  store ptr %5, ptr @conf_includes_list, align 8
  br label %6

6:                                                ; preds = %4, %2
  %7 = phi ptr [ %5, %4 ], [ %3, %2 ]
  %8 = tail call ptr @list_find_first_ro(ptr noundef %7, ptr noundef nonnull @find_map_conf_file, ptr noundef %1) #13
  %.not11 = icmp eq ptr %8, null
  br i1 %.not11, label %9, label %16

9:                                                ; preds = %6
  %10 = tail call ptr @slurm_xcalloc(i64 noundef 1, i64 noundef 16, i1 noundef zeroext true, i1 noundef zeroext false, ptr noundef nonnull @.str, i32 noundef 1138, ptr noundef nonnull @__func__._handle_include) #13
  %11 = tail call ptr @xstrdup(ptr noundef %1) #13
  store ptr %11, ptr %10, align 8
  %12 = tail call ptr @list_create(ptr noundef nonnull @xfree_ptr) #13
  %13 = getelementptr inbounds nuw i8, ptr %10, i64 8
  store ptr %12, ptr %13, align 8
  %14 = tail call ptr @xstrdup(ptr noundef %0) #13
  tail call void @list_append(ptr noundef %12, ptr noundef %14) #13
  %15 = load ptr, ptr @conf_includes_list, align 8
  tail call void @list_append(ptr noundef %15, ptr noundef nonnull %10) #13
  br label %23

16:                                               ; preds = %6
  %17 = getelementptr inbounds nuw i8, ptr %8, i64 8
  %18 = load ptr, ptr %17, align 8
  %19 = tail call ptr @list_find_first_ro(ptr noundef %18, ptr noundef nonnull @slurm_find_char_exact_in_list, ptr noundef %0) #13
  %.not12 = icmp eq ptr %19, null
  br i1 %.not12, label %20, label %23

20:                                               ; preds = %16
  %21 = load ptr, ptr %17, align 8
  %22 = tail call ptr @xstrdup(ptr noundef %0) #13
  tail call void @list_append(ptr noundef %21, ptr noundef %22) #13
  br label %23

23:                                               ; preds = %16, %20, %9
  ret void
}